; Function Attrs: mustprogress nounwind uwtable
define internal fastcc void @_ZZN9grpc_core12_GLOBAL__N_120Chttp2ServerListener20ConfigFetcherWatcher23UpdateConnectionManagerENS_13RefCountedPtrIN26grpc_server_config_fetcher17ConnectionManagerEEEEN35GracefulShutdownExistingConnectionsD2Ev(ptr noundef nonnull readonly align 8 dereferenceable(48) %this) unnamed_addr #5 align 2 personality ptr @__gxx_personality_v0 {
entry:
  %0 = getelementptr inbounds i8, ptr %this, i64 24
  %this.val = load ptr, ptr %0, align 8
  %add.ptr.i.i = getelementptr inbounds i8, ptr %this, i64 8
  %cmp.i.not3 = icmp eq ptr %this.val, %add.ptr.i.i
  br i1 %cmp.i.not3, label %for.end, label %for.body

for.body:                                         ; preds = %entry, %for.inc
  %__begin3.sroa.0.04 = phi ptr [ %call.i, %for.inc ], [ %this.val, %entry ]
  %_M_storage.i.i = getelementptr inbounds i8, ptr %__begin3.sroa.0.04, i64 32
  %1 = load ptr, ptr %_M_storage.i.i, align 8
  invoke fastcc void @_ZN9grpc_core12_GLOBAL__N_120Chttp2ServerListener16ActiveConnection10SendGoAwayEv(ptr noundef nonnull align 8 dereferenceable(113) %1)
          to label %for.inc unwind label %terminate.lpad

for.inc:                                          ; preds = %for.body
  %call.i = tail call noundef ptr @_ZSt18_Rb_tree_incrementPSt18_Rb_tree_node_base(ptr noundef nonnull %__begin3.sroa.0.04) #26
  %cmp.i.not = icmp eq ptr %call.i, %add.ptr.i.i
  br i1 %cmp.i.not, label %for.end, label %for.body

for.end:                                          ; preds = %for.inc, %entry
  %2 = getelementptr inbounds i8, ptr %this, i64 16
  %this.val.i.i = load ptr, ptr %2, align 8
  invoke fastcc void @_ZNSt8_Rb_treeIPN9grpc_core12_GLOBAL__N_120Chttp2ServerListener16ActiveConnectionESt4pairIKS4_St10unique_ptrIS3_NS0_16OrphanableDeleteEEESt10_Select1stISA_ESt4lessIS4_ESaISA_EE8_M_eraseEPSt13_Rb_tree_nodeISA_E(ptr noundef %this.val.i.i)
          to label %_ZNSt3mapIPN9grpc_core12_GLOBAL__N_120Chttp2ServerListener16ActiveConnectionESt10unique_ptrIS3_NS0_16OrphanableDeleteEESt4lessIS4_ESaISt4pairIKS4_S7_EEED2Ev.exit unwind label %terminate.lpad.i.i

terminate.lpad.i.i:                               ; preds = %for.end
  %3 = landingpad { ptr, i32 }
          catch ptr null
  %4 = extractvalue { ptr, i32 } %3, 0
  tail call void @__clang_call_terminate(ptr %4) #24
  unreachable

_ZNSt3mapIPN9grpc_core12_GLOBAL__N_120Chttp2ServerListener16ActiveConnectionESt10unique_ptrIS3_NS0_16OrphanableDeleteEESt4lessIS4_ESaISt4pairIKS4_S7_EEED2Ev.exit: ; preds = %for.end
  ret void

terminate.lpad:                                   ; preds = %for.body
  %5 = landingpad { ptr, i32 }
          catch ptr null
  %6 = extractvalue { ptr, i32 } %5, 0
  tail call void @__clang_call_terminate(ptr %6) #24
  unreachable
}